; Function Attrs: mustprogress nounwind uwtable
define dso_local noundef ptr @_ZNK4llvm11GlobalValue16getAliaseeObjectEv(ptr noundef nonnull align 8 dereferenceable(48) %0) local_unnamed_addr #1 align 2 {
  %2 = alloca %"class.llvm::DenseSet.470", align 8
  call void @llvm.memset.p0.i64(ptr noundef nonnull align 8 dereferenceable(20) %2, i8 0, i64 20, i1 false)
  %3 = call fastcc noundef ptr @"_ZL14findBaseObjectIZNK4llvm11GlobalValue16getAliaseeObjectEvE3$_0EPKNS0_12GlobalObjectEPKNS0_8ConstantERNS0_8DenseSetIPKNS0_11GlobalAliasENS0_12DenseMapInfoISC_vEEEERKT_"(ptr noundef nonnull %0, ptr noundef nonnull align 8 dereferenceable(24) %2)
  %4 = load ptr, ptr %2, align 8
  %5 = getelementptr inbounds nuw i8, ptr %2, i64 16
  %6 = load i32, ptr %5, align 8
  %7 = zext i32 %6 to i64
  %8 = shl nuw nsw i64 %7, 3
  call void @_ZN4llvm17deallocate_bufferEPvmm(ptr noundef %4, i64 noundef %8, i64 noundef 8) #12
  ret ptr %3
}